target datalayout = "e-m:e-p270:32:32-p271:32:32-p272:64:64-i64:64-i128:128-f80:128-n8:16:32:64-S128"
target triple = "x86_64-pc-linux-gnu"

@hf_mpeg_descr_nvod_reference_tsid = internal global i32 0, align 4
@hf_mpeg_descr_nvod_reference_onid = internal global i32 0, align 4
@hf_mpeg_descr_nvod_reference_sid = internal global i32 0, align 4
@ett_mpeg_descriptor_nvod_reference_triplet = internal global i32 0, align 4
@.str.753 = private unnamed_addr constant [44 x i8] c"NVOD Service Triplet (0x%04X:0x%04X:0x%04X)\00", align 1

; Function Attrs: null_pointer_is_valid sspstrong uwtable
define internal void @proto_mpeg_descriptor_dissect_nvod_reference(ptr noundef %0, i32 noundef %1, i32 noundef %2, ptr noundef %3) #1 {
  %5 = alloca ptr, align 8
  %6 = alloca i32, align 4
  %7 = alloca i32, align 4
  %8 = alloca ptr, align 8
  %9 = alloca i32, align 4
  %10 = alloca ptr, align 8
  %11 = alloca i32, align 4
  %12 = alloca i32, align 4
  %13 = alloca i32, align 4
  store ptr %0, ptr %5, align 8
  store i32 %1, ptr %6, align 4
  store i32 %2, ptr %7, align 4
  store ptr %3, ptr %8, align 8
  call void @llvm.lifetime.start.p0(i64 4, ptr %9) #4
  %14 = load i32, ptr %6, align 4
  %15 = load i32, ptr %7, align 4
  %16 = add i32 %14, %15
  store i32 %16, ptr %9, align 4
  call void @llvm.lifetime.start.p0(i64 8, ptr %10) #4
  br label %17

17:                                               ; preds = %21, %4
  %18 = load i32, ptr %6, align 4
  %19 = load i32, ptr %9, align 4
  %20 = icmp ult i32 %18, %19
  br i1 %20, label %21, label %66

21:                                               ; preds = %17
  call void @llvm.lifetime.start.p0(i64 4, ptr %11) #4
  %22 = load ptr, ptr %5, align 8
  %23 = load i32, ptr %6, align 4
  %24 = add i32 %23, 0
  %25 = call zeroext i16 @tvb_get_uint16(ptr noundef %22, i32 noundef %24, i32 noundef 0)
  %26 = zext i16 %25 to i32
  store i32 %26, ptr %11, align 4
  call void @llvm.lifetime.start.p0(i64 4, ptr %12) #4
  %27 = load ptr, ptr %5, align 8
  %28 = load i32, ptr %6, align 4
  %29 = add i32 %28, 2
  %30 = call zeroext i16 @tvb_get_uint16(ptr noundef %27, i32 noundef %29, i32 noundef 0)
  %31 = zext i16 %30 to i32
  store i32 %31, ptr %12, align 4
  call void @llvm.lifetime.start.p0(i64 4, ptr %13) #4
  %32 = load ptr, ptr %5, align 8
  %33 = load i32, ptr %6, align 4
  %34 = add i32 %33, 4
  %35 = call zeroext i16 @tvb_get_uint16(ptr noundef %32, i32 noundef %34, i32 noundef 0)
  %36 = zext i16 %35 to i32
  store i32 %36, ptr %13, align 4
  %37 = load ptr, ptr %8, align 8
  %38 = load ptr, ptr %5, align 8
  %39 = load i32, ptr %6, align 4
  %40 = load i32, ptr @ett_mpeg_descriptor_nvod_reference_triplet, align 4
  %41 = load i32, ptr %11, align 4
  %42 = load i32, ptr %12, align 4
  %43 = load i32, ptr %13, align 4
  %44 = call ptr (ptr, ptr, i32, i32, i32, ptr, ptr, ...) @proto_tree_add_subtree_format(ptr noundef %37, ptr noundef %38, i32 noundef %39, i32 noundef 6, i32 noundef %40, ptr noundef null, ptr noundef @.str.753, i32 noundef %41, i32 noundef %42, i32 noundef %43)
  store ptr %44, ptr %10, align 8
  %45 = load ptr, ptr %10, align 8
  %46 = load i32, ptr @hf_mpeg_descr_nvod_reference_tsid, align 4
  %47 = load ptr, ptr %5, align 8
  %48 = load i32, ptr %6, align 4
  %49 = call ptr @proto_tree_add_item(ptr noundef %45, i32 noundef %46, ptr noundef %47, i32 noundef %48, i32 noundef 2, i32 noundef 0)
  %50 = load i32, ptr %6, align 4
  %51 = add i32 %50, 2
  store i32 %51, ptr %6, align 4
  %52 = load ptr, ptr %10, align 8
  %53 = load i32, ptr @hf_mpeg_descr_nvod_reference_onid, align 4
  %54 = load ptr, ptr %5, align 8
  %55 = load i32, ptr %6, align 4
  %56 = call ptr @proto_tree_add_item(ptr noundef %52, i32 noundef %53, ptr noundef %54, i32 noundef %55, i32 noundef 2, i32 noundef 0)
  %57 = load i32, ptr %6, align 4
  %58 = add i32 %57, 2
  store i32 %58, ptr %6, align 4
  %59 = load ptr, ptr %10, align 8
  %60 = load i32, ptr @hf_mpeg_descr_nvod_reference_sid, align 4
  %61 = load ptr, ptr %5, align 8
  %62 = load i32, ptr %6, align 4
  %63 = call ptr @proto_tree_add_item(ptr noundef %59, i32 noundef %60, ptr noundef %61, i32 noundef %62, i32 noundef 2, i32 noundef 0)
  %64 = load i32, ptr %6, align 4
  %65 = add i32 %64, 2
  store i32 %65, ptr %6, align 4
  call void @llvm.lifetime.end.p0(i64 4, ptr %13) #4
  call void @llvm.lifetime.end.p0(i64 4, ptr %12) #4
  call void @llvm.lifetime.end.p0(i64 4, ptr %11) #4
  br label %17, !llvm.loop !13

66:                                               ; preds = %17
  call void @llvm.lifetime.end.p0(i64 8, ptr %10) #4
  call void @llvm.lifetime.end.p0(i64 4, ptr %9) #4
  ret void
}