; Function Attrs: null_pointer_is_valid sspstrong uwtable
define internal fastcc void @proto_mpeg_descriptor_dissect_nvod_reference(ptr noundef %0, i32 noundef %1, i32 noundef range(i32 1, 256) %2, ptr noundef %3) unnamed_addr #1 {
  %5 = add i32 %2, %1
  %6 = icmp ult i32 %1, %5
  br i1 %6, label %.lr.ph, label %._crit_edge

.lr.ph:                                           ; preds = %4, %.lr.ph
  %.027 = phi i32 [ %23, %.lr.ph ], [ %1, %4 ]
  %7 = tail call zeroext i16 @tvb_get_uint16(ptr noundef %0, i32 noundef %.027, i32 noundef 0)
  %8 = zext i16 %7 to i32
  %9 = add i32 %.027, 2
  %10 = tail call zeroext i16 @tvb_get_uint16(ptr noundef %0, i32 noundef %9, i32 noundef 0)
  %11 = zext i16 %10 to i32
  %12 = add i32 %.027, 4
  %13 = tail call zeroext i16 @tvb_get_uint16(ptr noundef %0, i32 noundef %12, i32 noundef 0)
  %14 = zext i16 %13 to i32
  %15 = load i32, ptr @ett_mpeg_descriptor_nvod_reference_triplet, align 4
  %16 = tail call ptr (ptr, ptr, i32, i32, i32, ptr, ptr, ...) @proto_tree_add_subtree_format(ptr noundef %3, ptr noundef %0, i32 noundef %.027, i32 noundef 6, i32 noundef %15, ptr noundef null, ptr noundef nonnull @.str.753, i32 noundef %8, i32 noundef %11, i32 noundef %14)
  %17 = load i32, ptr @hf_mpeg_descr_nvod_reference_tsid, align 4
  %18 = tail call ptr @proto_tree_add_item(ptr noundef %16, i32 noundef %17, ptr noundef %0, i32 noundef %.027, i32 noundef 2, i32 noundef 0)
  %19 = load i32, ptr @hf_mpeg_descr_nvod_reference_onid, align 4
  %20 = tail call ptr @proto_tree_add_item(ptr noundef %16, i32 noundef %19, ptr noundef %0, i32 noundef %9, i32 noundef 2, i32 noundef 0)
  %21 = load i32, ptr @hf_mpeg_descr_nvod_reference_sid, align 4
  %22 = tail call ptr @proto_tree_add_item(ptr noundef %16, i32 noundef %21, ptr noundef %0, i32 noundef %12, i32 noundef 2, i32 noundef 0)
  %23 = add i32 %.027, 6
  %24 = icmp ult i32 %23, %5
  br i1 %24, label %.lr.ph, label %._crit_edge, !llvm.loop !13

._crit_edge:                                      ; preds = %.lr.ph, %4
  ret void
}